; Function Attrs: mustprogress uwtable
define hidden noundef ptr @_ZN8fpa_util13mk_float_sortEjj(ptr nocapture noundef nonnull readonly align 8 dereferenceable(64) %this, i32 noundef %ebits, i32 noundef %sbits) local_unnamed_addr #3 align 2 personality ptr @__gxx_personality_v0 {
entry:
  %ps = alloca [2 x %class.parameter], align 16
  store i32 %ebits, ptr %ps, align 16
  %_M_index.i.i.i.i.i.i.i.i.i = getelementptr inbounds i8, ptr %ps, i64 8
  store i8 0, ptr %_M_index.i.i.i.i.i.i.i.i.i, align 8
  %arrayinit.element = getelementptr inbounds i8, ptr %ps, i64 16
  store i32 %sbits, ptr %arrayinit.element, align 16
  %_M_index.i.i.i.i.i.i.i.i.i1 = getelementptr inbounds i8, ptr %ps, i64 24
  store i8 0, ptr %_M_index.i.i.i.i.i.i.i.i.i1, align 8
  %0 = load ptr, ptr %this, align 8
  %m_fid = getelementptr inbounds i8, ptr %this, i64 16
  %1 = load i32, ptr %m_fid, align 8
  %call7 = invoke noundef ptr @_ZN11ast_manager7mk_sortEiijPK9parameter(ptr noundef nonnull align 8 dereferenceable(976) %0, i32 noundef %1, i32 noundef 0, i32 noundef 2, ptr noundef nonnull %ps)
          to label %invoke.cont6 unwind label %lpad4

invoke.cont6:                                     ; preds = %entry
  %2 = getelementptr inbounds i8, ptr %ps, i64 32
  br label %arraydestroy.body8

lpad4:                                            ; preds = %entry
  %3 = landingpad { ptr, i32 }
          cleanup
  %4 = getelementptr inbounds i8, ptr %ps, i64 32
  br label %arraydestroy.body14

arraydestroy.body8:                               ; preds = %arraydestroy.body8, %invoke.cont6
  %arraydestroy.elementPast9 = phi ptr [ %2, %invoke.cont6 ], [ %arraydestroy.element10, %arraydestroy.body8 ]
  %arraydestroy.element10 = getelementptr inbounds i8, ptr %arraydestroy.elementPast9, i64 -16
  call void @_ZN9parameterD1Ev(ptr noundef nonnull align 8 dereferenceable(16) %arraydestroy.element10) #18
  %arraydestroy.done11 = icmp eq ptr %arraydestroy.element10, %ps
  br i1 %arraydestroy.done11, label %arraydestroy.done12, label %arraydestroy.body8

arraydestroy.done12:                              ; preds = %arraydestroy.body8
  ret ptr %call7

arraydestroy.body14:                              ; preds = %arraydestroy.body14, %lpad4
  %arraydestroy.elementPast15 = phi ptr [ %4, %lpad4 ], [ %arraydestroy.element16, %arraydestroy.body14 ]
  %arraydestroy.element16 = getelementptr inbounds i8, ptr %arraydestroy.elementPast15, i64 -16
  call void @_ZN9parameterD1Ev(ptr noundef nonnull align 8 dereferenceable(16) %arraydestroy.element16) #18
  %arraydestroy.done17 = icmp eq ptr %arraydestroy.element16, %ps
  br i1 %arraydestroy.done17, label %eh.resume, label %arraydestroy.body14

eh.resume:                                        ; preds = %arraydestroy.body14
  resume { ptr, i32 } %3
}